

Microchip MPLAB XC8 Assembler V2.31 build 20201012212115 
                                                                                               Tue Jul 20 21:09:25 2021

Microchip MPLAB XC8 C Compiler v2.31 (Free license) build 20201012212115 Og1 
     1                           	processor	16F887
     2                           	pagewidth 120
     3                           	opt	flic
     4                           	psect	cinit,global,class=CODE,merge=1,delta=2
     5                           	psect	bssCOMMON,global,class=COMMON,space=1,delta=1,noexec
     6                           	psect	bssBANK0,global,class=BANK0,space=1,delta=1,noexec
     7                           	psect	cstackCOMMON,global,class=COMMON,space=1,delta=1,noexec
     8                           	psect	cstackBANK0,global,class=BANK0,space=1,delta=1,noexec
     9                           	psect	maintext,global,class=CODE,split=1,delta=2
    10                           	psect	text1,local,class=CODE,merge=1,delta=2
    11                           	psect	text2,local,class=CODE,merge=1,delta=2
    12                           	psect	text3,local,class=CODE,merge=1,delta=2
    13                           	psect	text4,local,class=CODE,merge=1,delta=2
    14                           	psect	text5,local,class=CODE,merge=1,delta=2
    15                           	psect	text6,local,class=CODE,merge=1,delta=2
    16                           	psect	intentry,global,class=CODE,delta=2
    17                           	psect	config,global,abs,ovrld,class=CONFIG,space=4,delta=2,noexec
    18                           	dabs	1,0x7E,2
    19  0000                     
    20                           ; Version 2.20
    21                           ; Generated 12/02/2020 GMT
    22                           ; 
    23                           ; Copyright © 2020, Microchip Technology Inc. and its subsidiaries ("Microchip")
    24                           ; All rights reserved.
    25                           ; 
    26                           ; This software is developed by Microchip Technology Inc. and its subsidiaries ("Microch
      +                          ip").
    27                           ; 
    28                           ; Redistribution and use in source and binary forms, with or without modification, are
    29                           ; permitted provided that the following conditions are met:
    30                           ; 
    31                           ;     1. Redistributions of source code must retain the above copyright notice, this lis
      +                          t of
    32                           ;        conditions and the following disclaimer.
    33                           ; 
    34                           ;     2. Redistributions in binary form must reproduce the above copyright notice, this 
      +                          list
    35                           ;        of conditions and the following disclaimer in the documentation and/or other
    36                           ;        materials provided with the distribution.
    37                           ; 
    38                           ;     3. Microchip's name may not be used to endorse or promote products derived from th
      +                          is
    39                           ;        software without specific prior written permission.
    40                           ; 
    41                           ; THIS SOFTWARE IS PROVIDED BY MICROCHIP "AS IS" AND ANY EXPRESS OR IMPLIED WARRANTIES,
    42                           ; INCLUDING, BUT NOT LIMITED TO, THE IMPLIED WARRANTIES OF MERCHANTABILITY AND FITNESS F
      +                          OR
    43                           ; PURPOSE ARE DISCLAIMED.  IN NO EVENT SHALL MICROCHIP BE LIABLE FOR ANY DIRECT, INDIREC
      +                          T,
    44                           ; INCIDENTAL, SPECIAL, EXEMPLARY, OR CONSEQUENTIAL DAMAGES (INCLUDING BUT NOT LIMITED TO
    45                           ; PROCUREMENT OF SUBSTITUTE GOODS OR SERVICES; LOSS OF USE, DATA OR PROFITS; OR BUSINESS
    46                           ; INTERRUPTION) HOWSOEVER CAUSED AND ON ANY THEORY OF LIABILITY, WHETHER IN CONTRACT, ST
      +                          RICT
    47                           ; LIABILITY, OR TORT (INCLUDING NEGLIGENCE OR OTHERWISE) ARISING IN ANY WAY OUT OF THE U
      +                          SE OF
    48                           ; THIS SOFTWARE, EVEN IF ADVISED OF THE POSSIBILITY OF SUCH DAMAGE.
    49                           ; 
    50                           ; 
    51                           ; Code-generator required, PIC16F887 Definitions
    52                           ; 
    53                           ; SFR Addresses
    54  0000                     	;# 
    55  0001                     	;# 
    56  0002                     	;# 
    57  0003                     	;# 
    58  0004                     	;# 
    59  0005                     	;# 
    60  0006                     	;# 
    61  0007                     	;# 
    62  0008                     	;# 
    63  0009                     	;# 
    64  000A                     	;# 
    65  000B                     	;# 
    66  000C                     	;# 
    67  000D                     	;# 
    68  000E                     	;# 
    69  000E                     	;# 
    70  000F                     	;# 
    71  0010                     	;# 
    72  0011                     	;# 
    73  0012                     	;# 
    74  0013                     	;# 
    75  0014                     	;# 
    76  0015                     	;# 
    77  0015                     	;# 
    78  0016                     	;# 
    79  0017                     	;# 
    80  0018                     	;# 
    81  0019                     	;# 
    82  001A                     	;# 
    83  001B                     	;# 
    84  001B                     	;# 
    85  001C                     	;# 
    86  001D                     	;# 
    87  001E                     	;# 
    88  001F                     	;# 
    89  0081                     	;# 
    90  0085                     	;# 
    91  0086                     	;# 
    92  0087                     	;# 
    93  0088                     	;# 
    94  0089                     	;# 
    95  008C                     	;# 
    96  008D                     	;# 
    97  008E                     	;# 
    98  008F                     	;# 
    99  0090                     	;# 
   100  0091                     	;# 
   101  0092                     	;# 
   102  0093                     	;# 
   103  0093                     	;# 
   104  0093                     	;# 
   105  0094                     	;# 
   106  0095                     	;# 
   107  0096                     	;# 
   108  0097                     	;# 
   109  0098                     	;# 
   110  0099                     	;# 
   111  009A                     	;# 
   112  009B                     	;# 
   113  009C                     	;# 
   114  009D                     	;# 
   115  009E                     	;# 
   116  009F                     	;# 
   117  0105                     	;# 
   118  0107                     	;# 
   119  0108                     	;# 
   120  0109                     	;# 
   121  010C                     	;# 
   122  010C                     	;# 
   123  010D                     	;# 
   124  010E                     	;# 
   125  010F                     	;# 
   126  0185                     	;# 
   127  0187                     	;# 
   128  0188                     	;# 
   129  0189                     	;# 
   130  018C                     	;# 
   131  018D                     	;# 
   132  0000                     	;# 
   133  0001                     	;# 
   134  0002                     	;# 
   135  0003                     	;# 
   136  0004                     	;# 
   137  0005                     	;# 
   138  0006                     	;# 
   139  0007                     	;# 
   140  0008                     	;# 
   141  0009                     	;# 
   142  000A                     	;# 
   143  000B                     	;# 
   144  000C                     	;# 
   145  000D                     	;# 
   146  000E                     	;# 
   147  000E                     	;# 
   148  000F                     	;# 
   149  0010                     	;# 
   150  0011                     	;# 
   151  0012                     	;# 
   152  0013                     	;# 
   153  0014                     	;# 
   154  0015                     	;# 
   155  0015                     	;# 
   156  0016                     	;# 
   157  0017                     	;# 
   158  0018                     	;# 
   159  0019                     	;# 
   160  001A                     	;# 
   161  001B                     	;# 
   162  001B                     	;# 
   163  001C                     	;# 
   164  001D                     	;# 
   165  001E                     	;# 
   166  001F                     	;# 
   167  0081                     	;# 
   168  0085                     	;# 
   169  0086                     	;# 
   170  0087                     	;# 
   171  0088                     	;# 
   172  0089                     	;# 
   173  008C                     	;# 
   174  008D                     	;# 
   175  008E                     	;# 
   176  008F                     	;# 
   177  0090                     	;# 
   178  0091                     	;# 
   179  0092                     	;# 
   180  0093                     	;# 
   181  0093                     	;# 
   182  0093                     	;# 
   183  0094                     	;# 
   184  0095                     	;# 
   185  0096                     	;# 
   186  0097                     	;# 
   187  0098                     	;# 
   188  0099                     	;# 
   189  009A                     	;# 
   190  009B                     	;# 
   191  009C                     	;# 
   192  009D                     	;# 
   193  009E                     	;# 
   194  009F                     	;# 
   195  0105                     	;# 
   196  0107                     	;# 
   197  0108                     	;# 
   198  0109                     	;# 
   199  010C                     	;# 
   200  010C                     	;# 
   201  010D                     	;# 
   202  010E                     	;# 
   203  010F                     	;# 
   204  0185                     	;# 
   205  0187                     	;# 
   206  0188                     	;# 
   207  0189                     	;# 
   208  018C                     	;# 
   209  018D                     	;# 
   210  0000                     	;# 
   211  0001                     	;# 
   212  0002                     	;# 
   213  0003                     	;# 
   214  0004                     	;# 
   215  0005                     	;# 
   216  0006                     	;# 
   217  0007                     	;# 
   218  0008                     	;# 
   219  0009                     	;# 
   220  000A                     	;# 
   221  000B                     	;# 
   222  000C                     	;# 
   223  000D                     	;# 
   224  000E                     	;# 
   225  000E                     	;# 
   226  000F                     	;# 
   227  0010                     	;# 
   228  0011                     	;# 
   229  0012                     	;# 
   230  0013                     	;# 
   231  0014                     	;# 
   232  0015                     	;# 
   233  0015                     	;# 
   234  0016                     	;# 
   235  0017                     	;# 
   236  0018                     	;# 
   237  0019                     	;# 
   238  001A                     	;# 
   239  001B                     	;# 
   240  001B                     	;# 
   241  001C                     	;# 
   242  001D                     	;# 
   243  001E                     	;# 
   244  001F                     	;# 
   245  0081                     	;# 
   246  0085                     	;# 
   247  0086                     	;# 
   248  0087                     	;# 
   249  0088                     	;# 
   250  0089                     	;# 
   251  008C                     	;# 
   252  008D                     	;# 
   253  008E                     	;# 
   254  008F                     	;# 
   255  0090                     	;# 
   256  0091                     	;# 
   257  0092                     	;# 
   258  0093                     	;# 
   259  0093                     	;# 
   260  0093                     	;# 
   261  0094                     	;# 
   262  0095                     	;# 
   263  0096                     	;# 
   264  0097                     	;# 
   265  0098                     	;# 
   266  0099                     	;# 
   267  009A                     	;# 
   268  009B                     	;# 
   269  009C                     	;# 
   270  009D                     	;# 
   271  009E                     	;# 
   272  009F                     	;# 
   273  0105                     	;# 
   274  0107                     	;# 
   275  0108                     	;# 
   276  0109                     	;# 
   277  010C                     	;# 
   278  010C                     	;# 
   279  010D                     	;# 
   280  010E                     	;# 
   281  010F                     	;# 
   282  0185                     	;# 
   283  0187                     	;# 
   284  0188                     	;# 
   285  0189                     	;# 
   286  018C                     	;# 
   287  018D                     	;# 
   288  0000                     	;# 
   289  0001                     	;# 
   290  0002                     	;# 
   291  0003                     	;# 
   292  0004                     	;# 
   293  0005                     	;# 
   294  0006                     	;# 
   295  0007                     	;# 
   296  0008                     	;# 
   297  0009                     	;# 
   298  000A                     	;# 
   299  000B                     	;# 
   300  000C                     	;# 
   301  000D                     	;# 
   302  000E                     	;# 
   303  000E                     	;# 
   304  000F                     	;# 
   305  0010                     	;# 
   306  0011                     	;# 
   307  0012                     	;# 
   308  0013                     	;# 
   309  0014                     	;# 
   310  0015                     	;# 
   311  0015                     	;# 
   312  0016                     	;# 
   313  0017                     	;# 
   314  0018                     	;# 
   315  0019                     	;# 
   316  001A                     	;# 
   317  001B                     	;# 
   318  001B                     	;# 
   319  001C                     	;# 
   320  001D                     	;# 
   321  001E                     	;# 
   322  001F                     	;# 
   323  0081                     	;# 
   324  0085                     	;# 
   325  0086                     	;# 
   326  0087                     	;# 
   327  0088                     	;# 
   328  0089                     	;# 
   329  008C                     	;# 
   330  008D                     	;# 
   331  008E                     	;# 
   332  008F                     	;# 
   333  0090                     	;# 
   334  0091                     	;# 
   335  0092                     	;# 
   336  0093                     	;# 
   337  0093                     	;# 
   338  0093                     	;# 
   339  0094                     	;# 
   340  0095                     	;# 
   341  0096                     	;# 
   342  0097                     	;# 
   343  0098                     	;# 
   344  0099                     	;# 
   345  009A                     	;# 
   346  009B                     	;# 
   347  009C                     	;# 
   348  009D                     	;# 
   349  009E                     	;# 
   350  009F                     	;# 
   351  0105                     	;# 
   352  0107                     	;# 
   353  0108                     	;# 
   354  0109                     	;# 
   355  010C                     	;# 
   356  010C                     	;# 
   357  010D                     	;# 
   358  010E                     	;# 
   359  010F                     	;# 
   360  0185                     	;# 
   361  0187                     	;# 
   362  0188                     	;# 
   363  0189                     	;# 
   364  018C                     	;# 
   365  018D                     	;# 
   366  0009                     _PORTEbits	set	9
   367  0006                     _PORTBbits	set	6
   368  0001                     _TMR0	set	1
   369  0009                     _PORTE	set	9
   370  0008                     _PORTD	set	8
   371  0005                     _PORTA	set	5
   372  0008                     _PORTDbits	set	8
   373  0007                     _PORTC	set	7
   374  001F                     _ADCON0bits	set	31
   375  001E                     _ADRESH	set	30
   376  000C                     _PIR1bits	set	12
   377  0006                     _PORTB	set	6
   378  000B                     _INTCONbits	set	11
   379  009F                     _ADCON1bits	set	159
   380  0096                     _IOCBbits	set	150
   381  008C                     _PIE1bits	set	140
   382  0095                     _WPUBbits	set	149
   383  0081                     _OPTION_REGbits	set	129
   384  008F                     _OSCCONbits	set	143
   385  0089                     _TRISE	set	137
   386  0088                     _TRISD	set	136
   387  0087                     _TRISC	set	135
   388  0086                     _TRISBbits	set	134
   389  0085                     _TRISAbits	set	133
   390  0188                     _ANSELbits	set	392
   391  0189                     _ANSELH	set	393
   392  0188                     _ANSEL	set	392
   393                           
   394                           	psect	cinit
   395  0011                     start_initialization:	
   396                           ; #config settings
   397                           
   398  0011                     __initialization:
   399                           
   400                           ; Clear objects allocated to COMMON
   401  0011  01F0               	clrf	__pbssCOMMON& (0+127)
   402  0012  01F1               	clrf	(__pbssCOMMON+1)& (0+127)
   403  0013  01F2               	clrf	(__pbssCOMMON+2)& (0+127)
   404  0014  01F3               	clrf	(__pbssCOMMON+3)& (0+127)
   405  0015  01F4               	clrf	(__pbssCOMMON+4)& (0+127)
   406                           
   407                           ; Clear objects allocated to BANK0
   408  0016  1283               	bcf	3,5	;RP0=0, select bank0
   409  0017  1303               	bcf	3,6	;RP1=0, select bank0
   410  0018  01A7               	clrf	__pbssBANK0& (0+127)
   411  0019  01A8               	clrf	(__pbssBANK0+1)& (0+127)
   412  001A                     end_of_initialization:	
   413                           ;End of C runtime variable initialization code
   414                           
   415  001A                     __end_of__initialization:
   416  001A  0183               	clrf	3
   417  001B  120A  118A  288A   	ljmp	_main	;jump to C main() function
   418                           
   419                           	psect	bssCOMMON
   420  0070                     __pbssCOMMON:
   421  0070                     _display2:
   422  0070                     	ds	1
   423  0071                     _display1:
   424  0071                     	ds	1
   425  0072                     _multiplex:
   426  0072                     	ds	1
   427  0073                     _antirrebote2:
   428  0073                     	ds	1
   429  0074                     _antirrebote1:
   430  0074                     	ds	1
   431                           
   432                           	psect	bssBANK0
   433  0027                     __pbssBANK0:
   434  0027                     _conversion:
   435  0027                     	ds	2
   436                           
   437                           	psect	cstackCOMMON
   438  0075                     __pcstackCOMMON:
   439  0075                     ?_setup:
   440  0075                     ?_transistores:	
   441                           ; 1 bytes @ 0x0
   442                           
   443  0075                     ?_botones:	
   444                           ; 1 bytes @ 0x0
   445                           
   446  0075                     ?_adc_config:	
   447                           ; 1 bytes @ 0x0
   448                           
   449  0075                     ?_multiplexada:	
   450                           ; 1 bytes @ 0x0
   451                           
   452  0075                     ?_isr:	
   453                           ; 1 bytes @ 0x0
   454                           
   455  0075                     ??_isr:	
   456                           ; 1 bytes @ 0x0
   457                           
   458  0075                     ?_main:	
   459                           ; 1 bytes @ 0x0
   460                           
   461                           
   462                           ; 1 bytes @ 0x0
   463  0075                     	ds	5
   464                           
   465                           	psect	cstackBANK0
   466  0020                     __pcstackBANK0:
   467  0020                     ??_botones:
   468  0020                     ??_adc_config:	
   469                           ; 1 bytes @ 0x0
   470                           
   471  0020                     ??_multiplexada:	
   472                           ; 1 bytes @ 0x0
   473                           
   474                           
   475                           ; 1 bytes @ 0x0
   476  0020                     	ds	1
   477  0021                     ??_setup:
   478                           
   479                           ; 1 bytes @ 0x1
   480  0021                     	ds	1
   481  0022                     multiplexada@numero:
   482                           
   483                           ; 1 bytes @ 0x2
   484  0022                     	ds	1
   485  0023                     ??_transistores:
   486                           
   487                           ; 1 bytes @ 0x3
   488  0023                     	ds	2
   489  0025                     ??_main:
   490                           
   491                           ; 1 bytes @ 0x5
   492  0025                     	ds	2
   493                           
   494                           	psect	maintext
   495  008A                     __pmaintext:	
   496 ;;
   497 ;;Main: autosize = 0, tempsize = 2, incstack = 0, save=0
   498 ;;
   499 ;; *************** function _main *****************
   500 ;; Defined at:
   501 ;;		line 108 in file "main_lab1.c"
   502 ;; Parameters:    Size  Location     Type
   503 ;;		None
   504 ;; Auto vars:     Size  Location     Type
   505 ;;		None
   506 ;; Return value:  Size  Location     Type
   507 ;;                  1    wreg      void 
   508 ;; Registers used:
   509 ;;		wreg, fsr0l, fsr0h, status,2, status,0, pclath, cstack
   510 ;; Tracked objects:
   511 ;;		On entry : B00/0
   512 ;;		On exit  : 0/0
   513 ;;		Unchanged: 0/0
   514 ;; Data sizes:     COMMON   BANK0   BANK1   BANK3   BANK2
   515 ;;      Params:         0       0       0       0       0
   516 ;;      Locals:         0       0       0       0       0
   517 ;;      Temps:          0       2       0       0       0
   518 ;;      Totals:         0       2       0       0       0
   519 ;;Total ram usage:        2 bytes
   520 ;; Hardware stack levels required when called:    3
   521 ;; This function calls:
   522 ;;		_botones
   523 ;;		_setup
   524 ;;		_transistores
   525 ;; This function is called by:
   526 ;;		Startup code after reset
   527 ;; This function uses a non-reentrant model
   528 ;;
   529                           
   530                           
   531                           ;psect for function _main
   532  008A                     _main:
   533  008A                     l1335:	
   534                           ;incstack = 0
   535                           ; Regs used in _main: [wreg-fsr0h+status,2+status,0+pclath+cstack]
   536                           
   537                           
   538                           ;main_lab1.c: 110:     setup();
   539  008A  120A  118A  210E  120A  118A  	fcall	_setup
   540  008F                     l1337:
   541                           
   542                           ;main_lab1.c: 111:     _delay((unsigned long)((20)*(4000000/4000.0)));
   543  008F  301A               	movlw	26
   544  0090  1283               	bcf	3,5	;RP0=0, select bank0
   545  0091  1303               	bcf	3,6	;RP1=0, select bank0
   546  0092  00A6               	movwf	??_main+1
   547  0093  30F7               	movlw	247
   548  0094  00A5               	movwf	??_main
   549  0095                     u217:
   550  0095  0BA5               	decfsz	??_main,f
   551  0096  2895               	goto	u217
   552  0097  0BA6               	decfsz	??_main+1,f
   553  0098  2895               	goto	u217
   554  0099  289A               	nop2
   555  009A                     l1339:
   556                           
   557                           ;main_lab1.c: 112:     ADCON0bits.GO = 1;
   558  009A  1283               	bcf	3,5	;RP0=0, select bank0
   559  009B  1303               	bcf	3,6	;RP1=0, select bank0
   560  009C  149F               	bsf	31,1	;volatile
   561  009D                     l1341:
   562                           
   563                           ;main_lab1.c: 115:     {;main_lab1.c: 117:         transistores();
   564  009D  120A  118A  214F  120A  118A  	fcall	_transistores
   565  00A2                     l1343:
   566                           
   567                           ;main_lab1.c: 118:         botones();
   568  00A2  120A  118A  2180  120A  118A  	fcall	_botones
   569  00A7                     l1345:
   570                           
   571                           ;main_lab1.c: 121:         display1 = ADRESH & 0x0f;
   572  00A7  1283               	bcf	3,5	;RP0=0, select bank0
   573  00A8  1303               	bcf	3,6	;RP1=0, select bank0
   574  00A9  081E               	movf	30,w	;volatile
   575  00AA  390F               	andlw	15
   576  00AB  00A5               	movwf	??_main
   577  00AC  0825               	movf	??_main,w
   578  00AD  00F1               	movwf	_display1
   579  00AE                     l1347:
   580                           
   581                           ;main_lab1.c: 122:         display2 = ADRESH & 0xf0;
   582  00AE  081E               	movf	30,w	;volatile
   583  00AF  39F0               	andlw	240
   584  00B0  00A5               	movwf	??_main
   585  00B1  0825               	movf	??_main,w
   586  00B2  00F0               	movwf	_display2
   587  00B3                     l1349:
   588                           
   589                           ;main_lab1.c: 123:         display2 = display2 >> 4;
   590  00B3  0870               	movf	_display2,w
   591  00B4  00A5               	movwf	??_main
   592  00B5  3004               	movlw	4
   593  00B6                     u195:
   594  00B6  1003               	clrc
   595  00B7  0CA5               	rrf	??_main,f
   596  00B8  3EFF               	addlw	-1
   597  00B9  1D03               	skipz
   598  00BA  28B6               	goto	u195
   599  00BB  0825               	movf	??_main,w
   600  00BC  00A6               	movwf	??_main+1
   601  00BD  0826               	movf	??_main+1,w
   602  00BE  00F0               	movwf	_display2
   603  00BF                     l1351:
   604                           
   605                           ;main_lab1.c: 127:         if (PORTC==ADRESH)
   606  00BF  0807               	movf	7,w	;volatile
   607  00C0  061E               	xorwf	30,w	;volatile
   608  00C1  1D03               	skipz
   609  00C2  28C4               	goto	u201
   610  00C3  28C5               	goto	u200
   611  00C4                     u201:
   612  00C4  28C7               	goto	l95
   613  00C5                     u200:
   614  00C5                     l1353:
   615                           
   616                           ;main_lab1.c: 128:             PORTDbits.RD7=1;
   617  00C5  1788               	bsf	8,7	;volatile
   618  00C6  289D               	goto	l1341
   619  00C7                     l95:	
   620                           ;main_lab1.c: 129:         else
   621                           
   622                           
   623                           ;main_lab1.c: 130:             PORTDbits.RD7=0;
   624  00C7  1388               	bcf	8,7	;volatile
   625  00C8  289D               	goto	l1341
   626  00C9  120A  118A  280E   	ljmp	start
   627  00CC                     __end_of_main:
   628                           
   629                           	psect	text1
   630  014F                     __ptext1:	
   631 ;; *************** function _transistores *****************
   632 ;; Defined at:
   633 ;;		line 222 in file "main_lab1.c"
   634 ;; Parameters:    Size  Location     Type
   635 ;;		None
   636 ;; Auto vars:     Size  Location     Type
   637 ;;		None
   638 ;; Return value:  Size  Location     Type
   639 ;;                  1    wreg      void 
   640 ;; Registers used:
   641 ;;		wreg, fsr0l, fsr0h, status,2, status,0, pclath, cstack
   642 ;; Tracked objects:
   643 ;;		On entry : 0/0
   644 ;;		On exit  : 0/0
   645 ;;		Unchanged: 0/0
   646 ;; Data sizes:     COMMON   BANK0   BANK1   BANK3   BANK2
   647 ;;      Params:         0       0       0       0       0
   648 ;;      Locals:         0       0       0       0       0
   649 ;;      Temps:          0       2       0       0       0
   650 ;;      Totals:         0       2       0       0       0
   651 ;;Total ram usage:        2 bytes
   652 ;; Hardware stack levels used:    1
   653 ;; Hardware stack levels required when called:    2
   654 ;; This function calls:
   655 ;;		_multiplexada
   656 ;; This function is called by:
   657 ;;		_main
   658 ;; This function uses a non-reentrant model
   659 ;;
   660                           
   661                           
   662                           ;psect for function _transistores
   663  014F                     _transistores:
   664  014F                     l1287:	
   665                           ;incstack = 0
   666                           ; Regs used in _transistores: [wreg-fsr0h+status,2+status,0+pclath+cstack]
   667                           
   668                           
   669                           ;main_lab1.c: 224:     switch(multiplex)
   670  014F  296A               	goto	l1309
   671  0150                     l1289:
   672                           
   673                           ;main_lab1.c: 227:             multiplexada(display1);
   674  0150  0871               	movf	_display1,w
   675  0151  120A  118A  201E  120A  118A  	fcall	_multiplexada
   676  0156                     l1291:
   677                           
   678                           ;main_lab1.c: 228:             PORTEbits.RE0=1;
   679  0156  1283               	bcf	3,5	;RP0=0, select bank0
   680  0157  1303               	bcf	3,6	;RP1=0, select bank0
   681  0158  1409               	bsf	9,0	;volatile
   682  0159                     l1293:
   683                           
   684                           ;main_lab1.c: 229:             PORTEbits.RE1=0;
   685  0159  1089               	bcf	9,1	;volatile
   686  015A                     l1295:
   687                           
   688                           ;main_lab1.c: 230:             PORTEbits.RE2=0;
   689  015A  1109               	bcf	9,2	;volatile
   690                           
   691                           ;main_lab1.c: 231:             break;
   692  015B  297F               	goto	l115
   693  015C                     l1297:
   694                           
   695                           ;main_lab1.c: 233:             multiplexada(display2);
   696  015C  0870               	movf	_display2,w
   697  015D  120A  118A  201E  120A  118A  	fcall	_multiplexada
   698  0162                     l1299:
   699                           
   700                           ;main_lab1.c: 234:             PORTEbits.RE0=0;
   701  0162  1283               	bcf	3,5	;RP0=0, select bank0
   702  0163  1303               	bcf	3,6	;RP1=0, select bank0
   703  0164  1009               	bcf	9,0	;volatile
   704  0165                     l1301:
   705                           
   706                           ;main_lab1.c: 235:             PORTEbits.RE1=1;
   707  0165  1489               	bsf	9,1	;volatile
   708  0166                     l1303:
   709                           
   710                           ;main_lab1.c: 236:             PORTEbits.RE2=0;
   711  0166  1109               	bcf	9,2	;volatile
   712                           
   713                           ;main_lab1.c: 237:             break;
   714  0167  297F               	goto	l115
   715  0168                     l1305:
   716                           
   717                           ;main_lab1.c: 239:             multiplex=0;
   718  0168  01F2               	clrf	_multiplex
   719                           
   720                           ;main_lab1.c: 240:             break;
   721  0169  297F               	goto	l115
   722  016A                     l1309:
   723  016A  0872               	movf	_multiplex,w
   724  016B  1283               	bcf	3,5	;RP0=0, select bank0
   725  016C  1303               	bcf	3,6	;RP1=0, select bank0
   726  016D  00A3               	movwf	??_transistores
   727  016E  01A4               	clrf	??_transistores+1
   728                           
   729                           ; Switch on 2 bytes has been partitioned into a top level switch of size 1, and 1 sub-sw
      +                          itches
   730                           ; Switch size 1, requested type "simple"
   731                           ; Number of cases is 1, Range of values is 0 to 0
   732                           ; switch strategies available:
   733                           ; Name         Instructions Cycles
   734                           ; simple_byte            4     3 (average)
   735                           ; direct_byte           11     8 (fixed)
   736                           ; jumptable            260     6 (fixed)
   737                           ;	Chosen strategy is simple_byte
   738  016F  0824               	movf	??_transistores+1,w
   739  0170  3A00               	xorlw	0	; case 0
   740  0171  1903               	skipnz
   741  0172  2974               	goto	l1445
   742  0173  297F               	goto	l115
   743  0174                     l1445:
   744                           
   745                           ; Switch size 1, requested type "simple"
   746                           ; Number of cases is 3, Range of values is 1 to 3
   747                           ; switch strategies available:
   748                           ; Name         Instructions Cycles
   749                           ; simple_byte           10     6 (average)
   750                           ; direct_byte           20    11 (fixed)
   751                           ; jumptable            263     9 (fixed)
   752                           ;	Chosen strategy is simple_byte
   753  0174  0823               	movf	??_transistores,w
   754  0175  3A01               	xorlw	1	; case 1
   755  0176  1903               	skipnz
   756  0177  2950               	goto	l1289
   757  0178  3A03               	xorlw	3	; case 2
   758  0179  1903               	skipnz
   759  017A  295C               	goto	l1297
   760  017B  3A01               	xorlw	1	; case 3
   761  017C  1903               	skipnz
   762  017D  2968               	goto	l1305
   763  017E  297F               	goto	l115
   764  017F                     l115:
   765  017F  0008               	return
   766  0180                     __end_of_transistores:
   767                           
   768                           	psect	text2
   769  001E                     __ptext2:	
   770 ;; *************** function _multiplexada *****************
   771 ;; Defined at:
   772 ;;		line 24 in file "multiplexada.c"
   773 ;; Parameters:    Size  Location     Type
   774 ;;  numero          1    wreg     unsigned char 
   775 ;; Auto vars:     Size  Location     Type
   776 ;;  numero          1    2[BANK0 ] unsigned char 
   777 ;; Return value:  Size  Location     Type
   778 ;;                  1    wreg      void 
   779 ;; Registers used:
   780 ;;		wreg, fsr0l, fsr0h, status,2, status,0
   781 ;; Tracked objects:
   782 ;;		On entry : 0/0
   783 ;;		On exit  : 0/0
   784 ;;		Unchanged: 0/0
   785 ;; Data sizes:     COMMON   BANK0   BANK1   BANK3   BANK2
   786 ;;      Params:         0       0       0       0       0
   787 ;;      Locals:         0       1       0       0       0
   788 ;;      Temps:          0       2       0       0       0
   789 ;;      Totals:         0       3       0       0       0
   790 ;;Total ram usage:        3 bytes
   791 ;; Hardware stack levels used:    1
   792 ;; Hardware stack levels required when called:    1
   793 ;; This function calls:
   794 ;;		Nothing
   795 ;; This function is called by:
   796 ;;		_transistores
   797 ;; This function uses a non-reentrant model
   798 ;;
   799                           
   800                           
   801                           ;psect for function _multiplexada
   802  001E                     _multiplexada:
   803                           
   804                           ;incstack = 0
   805                           ; Regs used in _multiplexada: [wreg-fsr0h+status,2+status,0]
   806                           ;multiplexada@numero stored from wreg
   807  001E  1283               	bcf	3,5	;RP0=0, select bank0
   808  001F  1303               	bcf	3,6	;RP1=0, select bank0
   809  0020  00A2               	movwf	multiplexada@numero
   810  0021                     l1183:
   811                           
   812                           ;multiplexada.c: 24: void multiplexada(unsigned char numero);multiplexada.c: 25: {;multi
      +                          plexada.c: 26:     switch(numero)
   813  0021  284F               	goto	l1219
   814  0022                     l1185:
   815                           
   816                           ;multiplexada.c: 29:             PORTD=0b10111111;
   817  0022  30BF               	movlw	191
   818  0023  0088               	movwf	8	;volatile
   819                           
   820                           ;multiplexada.c: 30:             break;
   821  0024  2889               	goto	l147
   822  0025                     l1187:
   823                           
   824                           ;multiplexada.c: 33:             PORTD=0b01011011;
   825  0025  305B               	movlw	91
   826  0026  0088               	movwf	8	;volatile
   827                           
   828                           ;multiplexada.c: 34:             break;
   829  0027  2889               	goto	l147
   830  0028                     l1191:
   831                           
   832                           ;multiplexada.c: 41:             PORTD=0b01001111;
   833  0028  304F               	movlw	79
   834  0029  0088               	movwf	8	;volatile
   835                           
   836                           ;multiplexada.c: 42:             break;
   837  002A  2889               	goto	l147
   838  002B                     l1193:
   839                           
   840                           ;multiplexada.c: 45:             PORTD=0b01100110;
   841  002B  3066               	movlw	102
   842  002C  0088               	movwf	8	;volatile
   843                           
   844                           ;multiplexada.c: 46:             break;
   845  002D  2889               	goto	l147
   846  002E                     l1195:
   847                           
   848                           ;multiplexada.c: 49:             PORTD=0b01101101;
   849  002E  306D               	movlw	109
   850  002F  0088               	movwf	8	;volatile
   851                           
   852                           ;multiplexada.c: 50:             break;
   853  0030  2889               	goto	l147
   854  0031                     l1197:
   855                           
   856                           ;multiplexada.c: 53:             PORTD=0b01111101;
   857  0031  307D               	movlw	125
   858  0032  0088               	movwf	8	;volatile
   859                           
   860                           ;multiplexada.c: 54:             break;
   861  0033  2889               	goto	l147
   862  0034                     l1199:
   863                           
   864                           ;multiplexada.c: 57:             PORTD=0b00000111;
   865  0034  3007               	movlw	7
   866  0035  0088               	movwf	8	;volatile
   867                           
   868                           ;multiplexada.c: 58:             break;
   869  0036  2889               	goto	l147
   870  0037                     l1201:
   871                           
   872                           ;multiplexada.c: 61:             PORTD=0b01111111;
   873  0037  307F               	movlw	127
   874  0038  0088               	movwf	8	;volatile
   875                           
   876                           ;multiplexada.c: 62:             break;
   877  0039  2889               	goto	l147
   878  003A                     l1203:
   879                           
   880                           ;multiplexada.c: 65:             PORTD=0b01101111;
   881  003A  306F               	movlw	111
   882  003B  0088               	movwf	8	;volatile
   883                           
   884                           ;multiplexada.c: 66:             break;
   885  003C  2889               	goto	l147
   886  003D                     l1205:
   887                           
   888                           ;multiplexada.c: 69:             PORTD=0b01110111;
   889  003D  3077               	movlw	119
   890  003E  0088               	movwf	8	;volatile
   891                           
   892                           ;multiplexada.c: 70:             break;
   893  003F  2889               	goto	l147
   894  0040                     l1207:
   895                           
   896                           ;multiplexada.c: 73:             PORTD=0b01111100;
   897  0040  307C               	movlw	124
   898  0041  0088               	movwf	8	;volatile
   899                           
   900                           ;multiplexada.c: 74:             break;
   901  0042  2889               	goto	l147
   902  0043                     l1209:
   903                           
   904                           ;multiplexada.c: 77:             PORTD=0b00111001;
   905  0043  3039               	movlw	57
   906  0044  0088               	movwf	8	;volatile
   907                           
   908                           ;multiplexada.c: 78:             break;
   909  0045  2889               	goto	l147
   910  0046                     l1211:
   911                           
   912                           ;multiplexada.c: 81:             PORTD=0b01011110;
   913  0046  305E               	movlw	94
   914  0047  0088               	movwf	8	;volatile
   915                           
   916                           ;multiplexada.c: 82:             break;
   917  0048  2889               	goto	l147
   918  0049                     l1213:
   919                           
   920                           ;multiplexada.c: 85:             PORTD=0b01111001;
   921  0049  3079               	movlw	121
   922  004A  0088               	movwf	8	;volatile
   923                           
   924                           ;multiplexada.c: 86:             break;
   925  004B  2889               	goto	l147
   926  004C                     l1215:
   927                           
   928                           ;multiplexada.c: 89:             PORTD=0b01110001;
   929  004C  3071               	movlw	113
   930  004D  0088               	movwf	8	;volatile
   931                           
   932                           ;multiplexada.c: 90:             break;
   933  004E  2889               	goto	l147
   934  004F                     l1219:
   935  004F  0822               	movf	multiplexada@numero,w
   936  0050  00A0               	movwf	??_multiplexada
   937  0051  01A1               	clrf	??_multiplexada+1
   938                           
   939                           ; Switch on 2 bytes has been partitioned into a top level switch of size 1, and 1 sub-sw
      +                          itches
   940                           ; Switch size 1, requested type "simple"
   941                           ; Number of cases is 1, Range of values is 0 to 0
   942                           ; switch strategies available:
   943                           ; Name         Instructions Cycles
   944                           ; simple_byte            4     3 (average)
   945                           ; direct_byte           11     8 (fixed)
   946                           ; jumptable            260     6 (fixed)
   947                           ;	Chosen strategy is simple_byte
   948  0052  0821               	movf	??_multiplexada+1,w
   949  0053  3A00               	xorlw	0	; case 0
   950  0054  1903               	skipnz
   951  0055  2857               	goto	l1447
   952  0056  2889               	goto	l147
   953  0057                     l1447:
   954                           
   955                           ; Switch size 1, requested type "simple"
   956                           ; Number of cases is 16, Range of values is 0 to 15
   957                           ; switch strategies available:
   958                           ; Name         Instructions Cycles
   959                           ; simple_byte           49    25 (average)
   960                           ; direct_byte           56     8 (fixed)
   961                           ; jumptable            260     6 (fixed)
   962                           ;	Chosen strategy is simple_byte
   963  0057  0820               	movf	??_multiplexada,w
   964  0058  3A00               	xorlw	0	; case 0
   965  0059  1903               	skipnz
   966  005A  2822               	goto	l1185
   967  005B  3A01               	xorlw	1	; case 1
   968  005C  1903               	skipnz
   969  005D  2825               	goto	l1187
   970  005E  3A03               	xorlw	3	; case 2
   971  005F  1903               	skipnz
   972  0060  2825               	goto	l1187
   973  0061  3A01               	xorlw	1	; case 3
   974  0062  1903               	skipnz
   975  0063  2828               	goto	l1191
   976  0064  3A07               	xorlw	7	; case 4
   977  0065  1903               	skipnz
   978  0066  282B               	goto	l1193
   979  0067  3A01               	xorlw	1	; case 5
   980  0068  1903               	skipnz
   981  0069  282E               	goto	l1195
   982  006A  3A03               	xorlw	3	; case 6
   983  006B  1903               	skipnz
   984  006C  2831               	goto	l1197
   985  006D  3A01               	xorlw	1	; case 7
   986  006E  1903               	skipnz
   987  006F  2834               	goto	l1199
   988  0070  3A0F               	xorlw	15	; case 8
   989  0071  1903               	skipnz
   990  0072  2837               	goto	l1201
   991  0073  3A01               	xorlw	1	; case 9
   992  0074  1903               	skipnz
   993  0075  283A               	goto	l1203
   994  0076  3A03               	xorlw	3	; case 10
   995  0077  1903               	skipnz
   996  0078  283D               	goto	l1205
   997  0079  3A01               	xorlw	1	; case 11
   998  007A  1903               	skipnz
   999  007B  2840               	goto	l1207
  1000  007C  3A07               	xorlw	7	; case 12
  1001  007D  1903               	skipnz
  1002  007E  2843               	goto	l1209
  1003  007F  3A01               	xorlw	1	; case 13
  1004  0080  1903               	skipnz
  1005  0081  2846               	goto	l1211
  1006  0082  3A03               	xorlw	3	; case 14
  1007  0083  1903               	skipnz
  1008  0084  2849               	goto	l1213
  1009  0085  3A01               	xorlw	1	; case 15
  1010  0086  1903               	skipnz
  1011  0087  284C               	goto	l1215
  1012  0088  2889               	goto	l147
  1013  0089                     l147:
  1014  0089  0008               	return
  1015  008A                     __end_of_multiplexada:
  1016                           
  1017                           	psect	text3
  1018  010E                     __ptext3:	
  1019 ;; *************** function _setup *****************
  1020 ;; Defined at:
  1021 ;;		line 137 in file "main_lab1.c"
  1022 ;; Parameters:    Size  Location     Type
  1023 ;;		None
  1024 ;; Auto vars:     Size  Location     Type
  1025 ;;		None
  1026 ;; Return value:  Size  Location     Type
  1027 ;;                  1    wreg      void 
  1028 ;; Registers used:
  1029 ;;		wreg, status,2, status,0, pclath, cstack
  1030 ;; Tracked objects:
  1031 ;;		On entry : 0/0
  1032 ;;		On exit  : 0/0
  1033 ;;		Unchanged: 0/0
  1034 ;; Data sizes:     COMMON   BANK0   BANK1   BANK3   BANK2
  1035 ;;      Params:         0       0       0       0       0
  1036 ;;      Locals:         0       0       0       0       0
  1037 ;;      Temps:          0       0       0       0       0
  1038 ;;      Totals:         0       0       0       0       0
  1039 ;;Total ram usage:        0 bytes
  1040 ;; Hardware stack levels used:    1
  1041 ;; Hardware stack levels required when called:    2
  1042 ;; This function calls:
  1043 ;;		_adc_config
  1044 ;; This function is called by:
  1045 ;;		_main
  1046 ;; This function uses a non-reentrant model
  1047 ;;
  1048                           
  1049                           
  1050                           ;psect for function _setup
  1051  010E                     _setup:
  1052  010E                     l1227:	
  1053                           ;incstack = 0
  1054                           ; Regs used in _setup: [wreg+status,2+status,0+pclath+cstack]
  1055                           
  1056                           
  1057                           ;main_lab1.c: 140:     ANSEL=0;
  1058  010E  1683               	bsf	3,5	;RP0=1, select bank3
  1059  010F  1703               	bsf	3,6	;RP1=1, select bank3
  1060  0110  0188               	clrf	8	;volatile
  1061                           
  1062                           ;main_lab1.c: 141:     ANSELH=0;
  1063  0111  0189               	clrf	9	;volatile
  1064  0112                     l1229:
  1065                           
  1066                           ;main_lab1.c: 142:     ANSELbits.ANS0=1;
  1067  0112  1408               	bsf	8,0	;volatile
  1068  0113                     l1231:
  1069                           
  1070                           ;main_lab1.c: 145:     TRISAbits.TRISA0=1;
  1071  0113  1683               	bsf	3,5	;RP0=1, select bank1
  1072  0114  1303               	bcf	3,6	;RP1=0, select bank1
  1073  0115  1405               	bsf	5,0	;volatile
  1074  0116                     l1233:
  1075                           
  1076                           ;main_lab1.c: 146:     TRISAbits.TRISA0=0;
  1077  0116  1005               	bcf	5,0	;volatile
  1078  0117                     l1235:
  1079                           
  1080                           ;main_lab1.c: 148:     TRISBbits.TRISB0=1;
  1081  0117  1406               	bsf	6,0	;volatile
  1082  0118                     l1237:
  1083                           
  1084                           ;main_lab1.c: 149:     TRISBbits.TRISB1=1;
  1085  0118  1486               	bsf	6,1	;volatile
  1086                           
  1087                           ;main_lab1.c: 151:     TRISC=0;
  1088  0119  0187               	clrf	7	;volatile
  1089                           
  1090                           ;main_lab1.c: 152:     TRISD=0;
  1091  011A  0188               	clrf	8	;volatile
  1092                           
  1093                           ;main_lab1.c: 153:     TRISE=0;
  1094  011B  0189               	clrf	9	;volatile
  1095                           
  1096                           ;main_lab1.c: 155:     PORTA=0;
  1097  011C  1283               	bcf	3,5	;RP0=0, select bank0
  1098  011D  1303               	bcf	3,6	;RP1=0, select bank0
  1099  011E  0185               	clrf	5	;volatile
  1100                           
  1101                           ;main_lab1.c: 156:     PORTB=0;
  1102  011F  0186               	clrf	6	;volatile
  1103                           
  1104                           ;main_lab1.c: 157:     PORTC=0;
  1105  0120  0187               	clrf	7	;volatile
  1106                           
  1107                           ;main_lab1.c: 158:     PORTD=0;
  1108  0121  0188               	clrf	8	;volatile
  1109                           
  1110                           ;main_lab1.c: 159:     PORTE=0;
  1111  0122  0189               	clrf	9	;volatile
  1112  0123                     l1239:
  1113                           
  1114                           ;main_lab1.c: 162:     OSCCONbits.IRCF = 0b110;
  1115  0123  1683               	bsf	3,5	;RP0=1, select bank1
  1116  0124  1303               	bcf	3,6	;RP1=0, select bank1
  1117  0125  080F               	movf	15,w	;volatile
  1118  0126  398F               	andlw	-113
  1119  0127  3860               	iorlw	96
  1120  0128  008F               	movwf	15	;volatile
  1121  0129                     l1241:
  1122                           
  1123                           ;main_lab1.c: 163:     OSCCONbits.SCS = 1;
  1124  0129  140F               	bsf	15,0	;volatile
  1125  012A                     l1243:
  1126                           
  1127                           ;main_lab1.c: 166:     OPTION_REGbits.T0CS = 0;
  1128  012A  1281               	bcf	1,5	;volatile
  1129  012B                     l1245:
  1130                           
  1131                           ;main_lab1.c: 167:     OPTION_REGbits.T0SE = 0;
  1132  012B  1201               	bcf	1,4	;volatile
  1133  012C                     l1247:
  1134                           
  1135                           ;main_lab1.c: 168:     OPTION_REGbits.PSA = 0;
  1136  012C  1181               	bcf	1,3	;volatile
  1137  012D                     l1249:
  1138                           
  1139                           ;main_lab1.c: 169:     OPTION_REGbits.PS2 = 1;
  1140  012D  1501               	bsf	1,2	;volatile
  1141  012E                     l1251:
  1142                           
  1143                           ;main_lab1.c: 170:     OPTION_REGbits.PS1 = 1;
  1144  012E  1481               	bsf	1,1	;volatile
  1145  012F                     l1253:
  1146                           
  1147                           ;main_lab1.c: 171:     OPTION_REGbits.PS0 = 1;
  1148  012F  1401               	bsf	1,0	;volatile
  1149  0130                     l1255:
  1150                           
  1151                           ;main_lab1.c: 172:     TMR0 = 255;
  1152  0130  30FF               	movlw	255
  1153  0131  1283               	bcf	3,5	;RP0=0, select bank0
  1154  0132  1303               	bcf	3,6	;RP1=0, select bank0
  1155  0133  0081               	movwf	1	;volatile
  1156  0134                     l1257:
  1157                           
  1158                           ;main_lab1.c: 175:     OPTION_REGbits.nRBPU = 0;
  1159  0134  1683               	bsf	3,5	;RP0=1, select bank1
  1160  0135  1303               	bcf	3,6	;RP1=0, select bank1
  1161  0136  1381               	bcf	1,7	;volatile
  1162  0137                     l1259:
  1163                           
  1164                           ;main_lab1.c: 176:     WPUBbits.WPUB0 = 1;
  1165  0137  1415               	bsf	21,0	;volatile
  1166  0138                     l1261:
  1167                           
  1168                           ;main_lab1.c: 177:     WPUBbits.WPUB1 = 1;
  1169  0138  1495               	bsf	21,1	;volatile
  1170  0139                     l1263:
  1171                           
  1172                           ;main_lab1.c: 178:     WPUBbits.WPUB2 = 1;
  1173  0139  1515               	bsf	21,2	;volatile
  1174  013A                     l1265:
  1175                           
  1176                           ;main_lab1.c: 181:     adc_config();
  1177  013A  120A  118A  219F  120A  118A  	fcall	_adc_config
  1178  013F                     l1267:
  1179                           
  1180                           ;main_lab1.c: 184:     INTCONbits.GIE=1;
  1181  013F  178B               	bsf	11,7	;volatile
  1182  0140                     l1269:
  1183                           
  1184                           ;main_lab1.c: 185:     INTCONbits.T0IE=1;
  1185  0140  168B               	bsf	11,5	;volatile
  1186  0141                     l1271:
  1187                           
  1188                           ;main_lab1.c: 186:     INTCONbits.T0IF=0;
  1189  0141  110B               	bcf	11,2	;volatile
  1190  0142                     l1273:
  1191                           
  1192                           ;main_lab1.c: 187:     INTCONbits.RBIE=1;
  1193  0142  158B               	bsf	11,3	;volatile
  1194  0143                     l1275:
  1195                           
  1196                           ;main_lab1.c: 188:     INTCONbits.RBIF=0;
  1197  0143  100B               	bcf	11,0	;volatile
  1198  0144                     l1277:
  1199                           
  1200                           ;main_lab1.c: 190:     PIE1bits.ADIE = 1 ;
  1201  0144  1683               	bsf	3,5	;RP0=1, select bank1
  1202  0145  1303               	bcf	3,6	;RP1=0, select bank1
  1203  0146  170C               	bsf	12,6	;volatile
  1204  0147                     l1279:
  1205                           
  1206                           ;main_lab1.c: 191:     PIR1bits.ADIF = 0;
  1207  0147  1283               	bcf	3,5	;RP0=0, select bank0
  1208  0148  1303               	bcf	3,6	;RP1=0, select bank0
  1209  0149  130C               	bcf	12,6	;volatile
  1210  014A                     l1281:
  1211                           
  1212                           ;main_lab1.c: 193:     IOCBbits.IOCB0=1;
  1213  014A  1683               	bsf	3,5	;RP0=1, select bank1
  1214  014B  1303               	bcf	3,6	;RP1=0, select bank1
  1215  014C  1416               	bsf	22,0	;volatile
  1216  014D                     l1283:
  1217                           
  1218                           ;main_lab1.c: 194:     IOCBbits.IOCB1=1;
  1219  014D  1496               	bsf	22,1	;volatile
  1220  014E                     l102:
  1221  014E  0008               	return
  1222  014F                     __end_of_setup:
  1223                           
  1224                           	psect	text4
  1225  019F                     __ptext4:	
  1226 ;; *************** function _adc_config *****************
  1227 ;; Defined at:
  1228 ;;		line 20 in file "adc_config.c"
  1229 ;; Parameters:    Size  Location     Type
  1230 ;;		None
  1231 ;; Auto vars:     Size  Location     Type
  1232 ;;		None
  1233 ;; Return value:  Size  Location     Type
  1234 ;;                  1    wreg      void 
  1235 ;; Registers used:
  1236 ;;		wreg, status,2, status,0
  1237 ;; Tracked objects:
  1238 ;;		On entry : 0/0
  1239 ;;		On exit  : 0/0
  1240 ;;		Unchanged: 0/0
  1241 ;; Data sizes:     COMMON   BANK0   BANK1   BANK3   BANK2
  1242 ;;      Params:         0       0       0       0       0
  1243 ;;      Locals:         0       0       0       0       0
  1244 ;;      Temps:          0       1       0       0       0
  1245 ;;      Totals:         0       1       0       0       0
  1246 ;;Total ram usage:        1 bytes
  1247 ;; Hardware stack levels used:    1
  1248 ;; Hardware stack levels required when called:    1
  1249 ;; This function calls:
  1250 ;;		Nothing
  1251 ;; This function is called by:
  1252 ;;		_setup
  1253 ;; This function uses a non-reentrant model
  1254 ;;
  1255                           
  1256                           
  1257                           ;psect for function _adc_config
  1258  019F                     _adc_config:
  1259  019F                     l1173:	
  1260                           ;incstack = 0
  1261                           ; Regs used in _adc_config: [wreg+status,2+status,0]
  1262                           
  1263                           
  1264                           ;adc_config.c: 23:     ADCON1bits.ADFM = 0 ;
  1265  019F  1683               	bsf	3,5	;RP0=1, select bank1
  1266  01A0  1303               	bcf	3,6	;RP1=0, select bank1
  1267  01A1  139F               	bcf	31,7	;volatile
  1268                           
  1269                           ;adc_config.c: 24:     ADCON1bits.VCFG0 = 0 ;
  1270  01A2  121F               	bcf	31,4	;volatile
  1271                           
  1272                           ;adc_config.c: 25:     ADCON1bits.VCFG1 = 0 ;
  1273  01A3  129F               	bcf	31,5	;volatile
  1274  01A4                     l1175:
  1275                           
  1276                           ;adc_config.c: 27:     ADCON0bits.ADCS = 0b01;
  1277  01A4  1283               	bcf	3,5	;RP0=0, select bank0
  1278  01A5  1303               	bcf	3,6	;RP1=0, select bank0
  1279  01A6  081F               	movf	31,w	;volatile
  1280  01A7  393F               	andlw	-193
  1281  01A8  3840               	iorlw	64
  1282  01A9  009F               	movwf	31	;volatile
  1283                           
  1284                           ;adc_config.c: 28:     ADCON0bits.CHS = 0;
  1285  01AA  30C3               	movlw	-61
  1286  01AB  059F               	andwf	31,f	;volatile
  1287  01AC                     l1177:
  1288                           
  1289                           ;adc_config.c: 29:     _delay((unsigned long)((50)*(4000000/4000000.0)));
  1290  01AC  300F               	movlw	15
  1291  01AD  1283               	bcf	3,5	;RP0=0, select bank0
  1292  01AE  1303               	bcf	3,6	;RP1=0, select bank0
  1293  01AF  00A0               	movwf	??_adc_config
  1294  01B0                     u227:
  1295  01B0  0BA0               	decfsz	??_adc_config,f
  1296  01B1  29B0               	goto	u227
  1297  01B2  29B3               	nop2
  1298  01B3                     l1179:
  1299                           
  1300                           ;adc_config.c: 30:     ADCON0bits.ADON = 1 ;
  1301  01B3  1283               	bcf	3,5	;RP0=0, select bank0
  1302  01B4  1303               	bcf	3,6	;RP1=0, select bank0
  1303  01B5  141F               	bsf	31,0	;volatile
  1304  01B6                     l124:
  1305  01B6  0008               	return
  1306  01B7                     __end_of_adc_config:
  1307                           
  1308                           	psect	text5
  1309  0180                     __ptext5:	
  1310 ;; *************** function _botones *****************
  1311 ;; Defined at:
  1312 ;;		line 203 in file "main_lab1.c"
  1313 ;; Parameters:    Size  Location     Type
  1314 ;;		None
  1315 ;; Auto vars:     Size  Location     Type
  1316 ;;		None
  1317 ;; Return value:  Size  Location     Type
  1318 ;;                  1    wreg      void 
  1319 ;; Registers used:
  1320 ;;		wreg, status,2, status,0
  1321 ;; Tracked objects:
  1322 ;;		On entry : 0/0
  1323 ;;		On exit  : 0/0
  1324 ;;		Unchanged: 0/0
  1325 ;; Data sizes:     COMMON   BANK0   BANK1   BANK3   BANK2
  1326 ;;      Params:         0       0       0       0       0
  1327 ;;      Locals:         0       0       0       0       0
  1328 ;;      Temps:          0       1       0       0       0
  1329 ;;      Totals:         0       1       0       0       0
  1330 ;;Total ram usage:        1 bytes
  1331 ;; Hardware stack levels used:    1
  1332 ;; Hardware stack levels required when called:    1
  1333 ;; This function calls:
  1334 ;;		Nothing
  1335 ;; This function is called by:
  1336 ;;		_main
  1337 ;; This function uses a non-reentrant model
  1338 ;;
  1339                           
  1340                           
  1341                           ;psect for function _botones
  1342  0180                     _botones:
  1343  0180                     l1317:	
  1344                           ;incstack = 0
  1345                           ; Regs used in _botones: [wreg+status,2+status,0]
  1346                           
  1347                           
  1348                           ;main_lab1.c: 206:     if (antirrebote1==1 && PORTBbits.RB0==0)
  1349  0180  0374               	decf	_antirrebote1,w
  1350  0181  1D03               	btfss	3,2
  1351  0182  2984               	goto	u151
  1352  0183  2985               	goto	u150
  1353  0184                     u151:
  1354  0184  2990               	goto	l1325
  1355  0185                     u150:
  1356  0185                     l1319:
  1357  0185  1283               	bcf	3,5	;RP0=0, select bank0
  1358  0186  1303               	bcf	3,6	;RP1=0, select bank0
  1359  0187  1806               	btfsc	6,0	;volatile
  1360  0188  298A               	goto	u161
  1361  0189  298B               	goto	u160
  1362  018A                     u161:
  1363  018A  2990               	goto	l1325
  1364  018B                     u160:
  1365  018B                     l1321:
  1366                           
  1367                           ;main_lab1.c: 207:     {;main_lab1.c: 208:         PORTC++;
  1368  018B  3001               	movlw	1
  1369  018C  00A0               	movwf	??_botones
  1370  018D  0820               	movf	??_botones,w
  1371  018E  0787               	addwf	7,f	;volatile
  1372  018F                     l1323:
  1373                           
  1374                           ;main_lab1.c: 209:         antirrebote1=0;
  1375  018F  01F4               	clrf	_antirrebote1
  1376  0190                     l1325:
  1377                           
  1378                           ;main_lab1.c: 212:     if (antirrebote2==1 && PORTBbits.RB1==0)
  1379  0190  0373               	decf	_antirrebote2,w
  1380  0191  1D03               	btfss	3,2
  1381  0192  2994               	goto	u171
  1382  0193  2995               	goto	u170
  1383  0194                     u171:
  1384  0194  299E               	goto	l107
  1385  0195                     u170:
  1386  0195                     l1327:
  1387  0195  1283               	bcf	3,5	;RP0=0, select bank0
  1388  0196  1303               	bcf	3,6	;RP1=0, select bank0
  1389  0197  1886               	btfsc	6,1	;volatile
  1390  0198  299A               	goto	u181
  1391  0199  299B               	goto	u180
  1392  019A                     u181:
  1393  019A  299E               	goto	l107
  1394  019B                     u180:
  1395  019B                     l1329:
  1396                           
  1397                           ;main_lab1.c: 213:     {;main_lab1.c: 214:         PORTC--;
  1398  019B  3001               	movlw	1
  1399  019C  0287               	subwf	7,f	;volatile
  1400  019D                     l1331:
  1401                           
  1402                           ;main_lab1.c: 215:         antirrebote2=0;
  1403  019D  01F3               	clrf	_antirrebote2
  1404  019E                     l107:
  1405  019E  0008               	return
  1406  019F                     __end_of_botones:
  1407                           
  1408                           	psect	text6
  1409  00CC                     __ptext6:	
  1410 ;; *************** function _isr *****************
  1411 ;; Defined at:
  1412 ;;		line 66 in file "main_lab1.c"
  1413 ;; Parameters:    Size  Location     Type
  1414 ;;		None
  1415 ;; Auto vars:     Size  Location     Type
  1416 ;;		None
  1417 ;; Return value:  Size  Location     Type
  1418 ;;                  1    wreg      void 
  1419 ;; Registers used:
  1420 ;;		wreg, fsr0l, fsr0h, status,2, status,0
  1421 ;; Tracked objects:
  1422 ;;		On entry : 0/0
  1423 ;;		On exit  : 0/0
  1424 ;;		Unchanged: 0/0
  1425 ;; Data sizes:     COMMON   BANK0   BANK1   BANK3   BANK2
  1426 ;;      Params:         0       0       0       0       0
  1427 ;;      Locals:         0       0       0       0       0
  1428 ;;      Temps:          5       0       0       0       0
  1429 ;;      Totals:         5       0       0       0       0
  1430 ;;Total ram usage:        5 bytes
  1431 ;; Hardware stack levels used:    1
  1432 ;; This function calls:
  1433 ;;		Nothing
  1434 ;; This function is called by:
  1435 ;;		Interrupt level 1
  1436 ;; This function uses a non-reentrant model
  1437 ;;
  1438                           
  1439                           
  1440                           ;psect for function _isr
  1441  00CC                     _isr:
  1442  00CC                     i1l1045:
  1443                           
  1444                           ;main_lab1.c: 69:     if (INTCONbits.T0IF)
  1445  00CC  1D0B               	btfss	11,2	;volatile
  1446  00CD  28CF               	goto	u10_21
  1447  00CE  28D0               	goto	u10_20
  1448  00CF                     u10_21:
  1449  00CF  28D5               	goto	i1l1051
  1450  00D0                     u10_20:
  1451  00D0                     i1l1047:
  1452                           
  1453                           ;main_lab1.c: 70:     {;main_lab1.c: 71:         multiplex++;
  1454  00D0  3001               	movlw	1
  1455  00D1  00F5               	movwf	??_isr
  1456  00D2  0875               	movf	??_isr,w
  1457  00D3  07F2               	addwf	_multiplex,f
  1458  00D4                     i1l1049:
  1459                           
  1460                           ;main_lab1.c: 72:         INTCONbits.T0IF=0;
  1461  00D4  110B               	bcf	11,2	;volatile
  1462  00D5                     i1l1051:
  1463                           
  1464                           ;main_lab1.c: 76:     if (INTCONbits.RBIF)
  1465  00D5  1C0B               	btfss	11,0	;volatile
  1466  00D6  28D8               	goto	u11_21
  1467  00D7  28D9               	goto	u11_20
  1468  00D8                     u11_21:
  1469  00D8  28F6               	goto	i1l82
  1470  00D9                     u11_20:
  1471  00D9  28E3               	goto	i1l1059
  1472  00DA                     i1l84:	
  1473                           ;main_lab1.c: 79:         {;main_lab1.c: 80:             case(0b11111110):
  1474                           
  1475                           
  1476                           ;main_lab1.c: 81:                 antirrebote1=1;
  1477  00DA  01F4               	clrf	_antirrebote1
  1478  00DB  0AF4               	incf	_antirrebote1,f
  1479                           
  1480                           ;main_lab1.c: 82:                 break;
  1481  00DC  28F5               	goto	i1l85
  1482  00DD                     i1l86:	
  1483                           ;main_lab1.c: 84:             case(0b11111101):
  1484                           
  1485                           
  1486                           ;main_lab1.c: 85:                 antirrebote2=1;
  1487  00DD  01F3               	clrf	_antirrebote2
  1488  00DE  0AF3               	incf	_antirrebote2,f
  1489                           
  1490                           ;main_lab1.c: 86:                 break;
  1491  00DF  28F5               	goto	i1l85
  1492  00E0                     i1l1055:
  1493                           
  1494                           ;main_lab1.c: 89:                 antirrebote1=0;
  1495  00E0  01F4               	clrf	_antirrebote1
  1496                           
  1497                           ;main_lab1.c: 90:                 antirrebote2=0;
  1498  00E1  01F3               	clrf	_antirrebote2
  1499                           
  1500                           ;main_lab1.c: 91:                 break;
  1501  00E2  28F5               	goto	i1l85
  1502  00E3                     i1l1059:
  1503  00E3  1283               	bcf	3,5	;RP0=0, select bank0
  1504  00E4  1303               	bcf	3,6	;RP1=0, select bank0
  1505  00E5  0806               	movf	6,w	;volatile
  1506  00E6  00F5               	movwf	??_isr
  1507  00E7  01F6               	clrf	??_isr+1
  1508                           
  1509                           ; Switch on 2 bytes has been partitioned into a top level switch of size 1, and 1 sub-sw
      +                          itches
  1510                           ; Switch size 1, requested type "simple"
  1511                           ; Number of cases is 1, Range of values is 0 to 0
  1512                           ; switch strategies available:
  1513                           ; Name         Instructions Cycles
  1514                           ; simple_byte            4     3 (average)
  1515                           ; direct_byte           11     8 (fixed)
  1516                           ; jumptable            260     6 (fixed)
  1517                           ;	Chosen strategy is simple_byte
  1518  00E8  0876               	movf	??_isr+1,w
  1519  00E9  3A00               	xorlw	0	; case 0
  1520  00EA  1903               	skipnz
  1521  00EB  28ED               	goto	i1l1449
  1522  00EC  28E0               	goto	i1l1055
  1523  00ED                     i1l1449:
  1524                           
  1525                           ; Switch size 1, requested type "simple"
  1526                           ; Number of cases is 2, Range of values is 253 to 254
  1527                           ; switch strategies available:
  1528                           ; Name         Instructions Cycles
  1529                           ; simple_byte            7     4 (average)
  1530                           ; direct_byte           17    11 (fixed)
  1531                           ; jumptable            263     9 (fixed)
  1532                           ;	Chosen strategy is simple_byte
  1533  00ED  0875               	movf	??_isr,w
  1534  00EE  3AFD               	xorlw	253	; case 253
  1535  00EF  1903               	skipnz
  1536  00F0  28DD               	goto	i1l86
  1537  00F1  3A03               	xorlw	3	; case 254
  1538  00F2  1903               	skipnz
  1539  00F3  28DA               	goto	i1l84
  1540  00F4  28E0               	goto	i1l1055
  1541  00F5                     i1l85:
  1542                           
  1543                           ;main_lab1.c: 93:         INTCONbits.RBIF=0;
  1544  00F5  100B               	bcf	11,0	;volatile
  1545  00F6                     i1l82:	
  1546                           ;main_lab1.c: 94:     }
  1547                           
  1548                           
  1549                           ;main_lab1.c: 97:     if (PIR1bits.ADIF==1)
  1550  00F6  1283               	bcf	3,5	;RP0=0, select bank0
  1551  00F7  1303               	bcf	3,6	;RP1=0, select bank0
  1552  00F8  1F0C               	btfss	12,6	;volatile
  1553  00F9  28FB               	goto	u12_21
  1554  00FA  28FC               	goto	u12_20
  1555  00FB                     u12_21:
  1556  00FB  2905               	goto	i1l89
  1557  00FC                     u12_20:
  1558  00FC                     i1l1061:
  1559                           
  1560                           ;main_lab1.c: 98:     {;main_lab1.c: 99:         conversion=ADRESH;
  1561  00FC  081E               	movf	30,w	;volatile
  1562  00FD  00F5               	movwf	??_isr
  1563  00FE  01F6               	clrf	??_isr+1
  1564  00FF  0875               	movf	??_isr,w
  1565  0100  00A7               	movwf	_conversion
  1566  0101  0876               	movf	??_isr+1,w
  1567  0102  00A8               	movwf	_conversion+1
  1568  0103                     i1l1063:
  1569                           
  1570                           ;main_lab1.c: 100:         ADCON0bits.GO = 1;
  1571  0103  149F               	bsf	31,1	;volatile
  1572  0104                     i1l1065:
  1573                           
  1574                           ;main_lab1.c: 101:         PIR1bits.ADIF=0;
  1575  0104  130C               	bcf	12,6	;volatile
  1576  0105                     i1l89:
  1577  0105  0879               	movf	??_isr+4,w
  1578  0106  008A               	movwf	10
  1579  0107  0878               	movf	??_isr+3,w
  1580  0108  0084               	movwf	4
  1581  0109  0E77               	swapf	??_isr+2,w
  1582  010A  0083               	movwf	3
  1583  010B  0EFE               	swapf	btemp,f
  1584  010C  0E7E               	swapf	btemp,w
  1585  010D  0009               	retfie
  1586  010E                     __end_of_isr:
  1587  007E                     btemp	set	126	;btemp
  1588  007E                     wtemp0	set	126
  1589                           
  1590                           	psect	intentry
  1591  0004                     __pintentry:	
  1592                           ;incstack = 0
  1593                           ; Regs used in _isr: [wreg-fsr0h+status,2+status,0]
  1594                           
  1595  0004                     interrupt_function:
  1596  007E                     saved_w	set	btemp
  1597  0004  00FE               	movwf	btemp
  1598  0005  0E03               	swapf	3,w
  1599  0006  00F7               	movwf	??_isr+2
  1600  0007  0804               	movf	4,w
  1601  0008  00F8               	movwf	??_isr+3
  1602  0009  080A               	movf	10,w
  1603  000A  00F9               	movwf	??_isr+4
  1604  000B  120A  118A  28CC   	ljmp	_isr
  1605                           
  1606                           	psect	config
  1607                           
  1608                           ;Config register CONFIG1 @ 0x2007
  1609                           ;	Oscillator Selection bits
  1610                           ;	FOSC = INTRC_NOCLKOUT, INTOSCIO oscillator: I/O function on RA6/OSC2/CLKOUT pin, I/O f
      +                          unction on RA7/OSC1/CLKIN
  1611                           ;	Watchdog Timer Enable bit
  1612                           ;	WDTE = OFF, WDT disabled and can be enabled by SWDTEN bit of the WDTCON register
  1613                           ;	Power-up Timer Enable bit
  1614                           ;	PWRTE = OFF, PWRT disabled
  1615                           ;	RE3/MCLR pin function select bit
  1616                           ;	MCLRE = OFF, RE3/MCLR pin function is digital input, MCLR internally tied to VDD
  1617                           ;	Code Protection bit
  1618                           ;	CP = OFF, Program memory code protection is disabled
  1619                           ;	Data Code Protection bit
  1620                           ;	CPD = OFF, Data memory code protection is disabled
  1621                           ;	Brown Out Reset Selection bits
  1622                           ;	BOREN = OFF, BOR disabled
  1623                           ;	Internal External Switchover bit
  1624                           ;	IESO = OFF, Internal/External Switchover mode is disabled
  1625                           ;	Fail-Safe Clock Monitor Enabled bit
  1626                           ;	FCMEN = OFF, Fail-Safe Clock Monitor is disabled
  1627                           ;	Low Voltage Programming Enable bit
  1628                           ;	LVP = OFF, RB3 pin has digital I/O, HV on MCLR must be used for programming
  1629                           ;	In-Circuit Debugger Mode bit
  1630                           ;	DEBUG = 0x1, unprogrammed default
  1631  2007                     	org	8199
  1632  2007  20D4               	dw	8404
  1633                           
  1634                           ;Config register CONFIG2 @ 0x2008
  1635                           ;	Brown-out Reset Selection bit
  1636                           ;	BOR4V = BOR40V, Brown-out Reset set to 4.0V
  1637                           ;	Flash Program Memory Self Write Enable bits
  1638                           ;	WRT = OFF, Write protection off
  1639  2008                     	org	8200
  1640  2008  3FFF               	dw	16383

Data Sizes:
    Strings     0
    Constant    0
    Data        0
    BSS         7
    Persistent  0
    Stack       0

Auto Spaces:
    Space          Size  Autos    Used
    COMMON           14      5      10
    BANK0            80      7       9
    BANK1            80      0       0
    BANK3            96      0       0
    BANK2            96      0       0

Pointer List with Targets:

    None.

Critical Paths under _main in COMMON

    None.

Critical Paths under _isr in COMMON

    None.

Critical Paths under _main in BANK0

    _main->_transistores
    _transistores->_multiplexada
    _setup->_adc_config

Critical Paths under _isr in BANK0

    None.

Critical Paths under _main in BANK1

    None.

Critical Paths under _isr in BANK1

    None.

Critical Paths under _main in BANK3

    None.

Critical Paths under _isr in BANK3

    None.

Critical Paths under _main in BANK2

    None.

Critical Paths under _isr in BANK2

    None.

Call Graph Tables:

 ---------------------------------------------------------------------------------
 (Depth) Function   	        Calls       Base Space   Used Autos Params    Refs
 ---------------------------------------------------------------------------------
 (0) _main                                                 2     2      0      22
                                              5 BANK0      2     2      0
                            _botones
                              _setup
                       _transistores
 ---------------------------------------------------------------------------------
 (1) _transistores                                         2     2      0      22
                                              3 BANK0      2     2      0
                       _multiplexada
 ---------------------------------------------------------------------------------
 (2) _multiplexada                                         3     3      0      22
                                              0 BANK0      3     3      0
 ---------------------------------------------------------------------------------
 (1) _setup                                                0     0      0       0
                         _adc_config
 ---------------------------------------------------------------------------------
 (2) _adc_config                                           1     1      0       0
                                              0 BANK0      1     1      0
 ---------------------------------------------------------------------------------
 (1) _botones                                              1     1      0       0
                                              0 BANK0      1     1      0
 ---------------------------------------------------------------------------------
 Estimated maximum stack depth 2
 ---------------------------------------------------------------------------------
 (Depth) Function   	        Calls       Base Space   Used Autos Params    Refs
 ---------------------------------------------------------------------------------
 (3) _isr                                                  5     5      0       0
                                              0 COMMON     5     5      0
 ---------------------------------------------------------------------------------
 Estimated maximum stack depth 3
 ---------------------------------------------------------------------------------

 Call Graph Graphs:

 _main (ROOT)
   _botones
   _setup
     _adc_config
   _transistores
     _multiplexada

 _isr (ROOT)

 Address spaces:
Name               Size   Autos  Total    Cost      Usage
BITCOMMON            E      0       0       0        0.0%
EEDATA             100      0       0       0        0.0%
NULL                 0      0       0       0        0.0%
CODE                 0      0       0       0        0.0%
COMMON               E      5       A       1       71.4%
BITSFR0              0      0       0       1        0.0%
SFR0                 0      0       0       1        0.0%
BITSFR1              0      0       0       2        0.0%
SFR1                 0      0       0       2        0.0%
STACK                0      0       0       2        0.0%
ABS                  0      0      13       3        0.0%
BITBANK0            50      0       0       4        0.0%
BITSFR3              0      0       0       4        0.0%
SFR3                 0      0       0       4        0.0%
BANK0               50      7       9       5       11.2%
BITSFR2              0      0       0       5        0.0%
SFR2                 0      0       0       5        0.0%
BITBANK1            50      0       0       6        0.0%
BANK1               50      0       0       7        0.0%
BITBANK3            60      0       0       8        0.0%
BANK3               60      0       0       9        0.0%
BITBANK2            60      0       0      10        0.0%
BANK2               60      0       0      11        0.0%
DATA                 0      0      13      12        0.0%


Microchip Technology PIC Macro Assembler V2.31 build 20201012212115 
Symbol Table                                                                                   Tue Jul 20 21:09:25 2021

                     l95 00C7                      l102 014E                      l107 019E  
                    l115 017F                      l124 01B6                      l147 0089  
                    u200 00C5                      u201 00C4                      u150 0185  
                    u151 0184                      u160 018B                      u161 018A  
                    u217 0095                      u170 0195                      u171 0194  
                    u227 01B0                      u180 019B                      u181 019A  
                    u195 00B6                      _isr 00CC                      fsr0 0004  
                   l1201 0037                     l1211 0046                     l1203 003A  
                   l1213 0049                     l1205 003D                     l1301 0165  
                   l1231 0113                     l1215 004C                     l1207 0040  
                   l1303 0166                     l1321 018B                     l1241 0129  
                   l1233 0116                     l1209 0043                     l1305 0168  
                   l1331 019D                     l1323 018F                     l1251 012E  
                   l1243 012A                     l1235 0117                     l1227 010E  
                   l1219 004F                     l1325 0190                     l1317 0180  
                   l1173 019F                     l1261 0138                     l1253 012F  
                   l1245 012B                     l1237 0118                     l1229 0112  
                   l1309 016A                     l1341 009D                     l1327 0195  
                   l1319 0185                     l1175 01A4                     l1271 0141  
                   l1263 0139                     l1255 0130                     l1247 012C  
                   l1239 0123                     l1191 0028                     l1183 0021  
                   l1351 00BF                     l1343 00A2                     l1335 008A  
                   l1329 019B                     l1177 01AC                     l1281 014A  
                   l1273 0142                     l1265 013A                     l1257 0134  
                   l1249 012D                     l1193 002B                     l1185 0022  
                   l1353 00C5                     l1345 00A7                     l1337 008F  
                   l1179 01B3                     l1283 014D                     l1275 0143  
                   l1267 013F                     l1259 0137                     l1195 002E  
                   l1187 0025                     l1291 0156                     l1347 00AE  
                   l1339 009A                     l1277 0144                     l1269 0140  
                   l1197 0031                     l1445 0174                     l1293 0159  
                   l1349 00B3                     l1279 0147                     l1447 0057  
                   l1199 0034                     l1295 015A                     l1287 014F  
                   l1297 015C                     l1289 0150                     l1299 0162  
                   ?_isr 0075                     i1l82 00F6                     i1l84 00DA  
                   i1l85 00F5                     i1l86 00DD                     i1l89 0105  
                   _TMR0 0001             _transistores 014F                     _main 008A  
                   btemp 007E                     start 000E                    ??_isr 0075  
                  ?_main 0075                    _ANSEL 0188                    u10_20 00D0  
                  u10_21 00CF                    u11_20 00D9                    u11_21 00D8  
                  u12_20 00FC                    u12_21 00FB                    _PORTA 0005  
                  _PORTB 0006                    _PORTC 0007                    _PORTD 0008  
                  _PORTE 0009                    _TRISC 0087                    _TRISD 0088  
                  _TRISE 0089          __end_of_botones 019F                    _setup 010E  
                  pclath 000A                    status 0003                    wtemp0 007E  
        __initialization 0011             __end_of_main 00CC                   ??_main 0025  
                 _ADRESH 001E                   ?_setup 0075                   _ANSELH 0189  
                 i1l1051 00D5                   i1l1061 00FC                   i1l1045 00CC  
                 i1l1063 0103                   i1l1055 00E0                   i1l1047 00D0  
                 i1l1065 0104                   i1l1049 00D4                   i1l1059 00E3  
                 i1l1449 00ED                ??_botones 0020                   saved_w 007E  
__end_of__initialization 001A           __pcstackCOMMON 0075               _adc_config 019F  
          __end_of_setup 014F           _OPTION_REGbits 0081                  ??_setup 0021  
             __pbssBANK0 0027               __pmaintext 008A               __pintentry 0004  
             _conversion 0027              ?_adc_config 0075                _ANSELbits 0188  
                __ptext1 014F                  __ptext2 001E                  __ptext3 010E  
                __ptext4 019F                  __ptext5 0180                  __ptext6 00CC  
                _botones 0180             __size_of_isr 0042     end_of_initialization 001A  
           _antirrebote1 0074             _antirrebote2 0073                _PORTBbits 0006  
              _PORTDbits 0008                _PORTEbits 0009            ?_multiplexada 0075  
              _TRISAbits 0085                _TRISBbits 0086      __size_of_adc_config 0018  
         ??_multiplexada 0020      start_initialization 0011              __end_of_isr 010E  
          ?_transistores 0075              __pbssCOMMON 0070                ___latbits 0002  
          __pcstackBANK0 0020           ??_transistores 0023             ??_adc_config 0020  
               ?_botones 0075       multiplexada@numero 0022           __size_of_setup 0041  
     __end_of_adc_config 01B7        interrupt_function 0004                 _IOCBbits 0096  
               _PIE1bits 008C     __end_of_multiplexada 008A                 _PIR1bits 000C  
              _multiplex 0072               _ADCON0bits 001F               _ADCON1bits 009F  
               _WPUBbits 0095     __end_of_transistores 0180         __size_of_botones 001F  
               _display1 0071                 _display2 0070            __size_of_main 0042  
             _INTCONbits 000B                 intlevel1 0000    __size_of_multiplexada 006C  
             _OSCCONbits 008F             _multiplexada 001E    __size_of_transistores 0031  
